target datalayout = "e-m:e-p270:32:32-p271:32:32-p272:64:64-i64:64-i128:128-f80:128-n8:16:32:64-S128"
target triple = "x86_64-pc-linux-gnu"

@.str.13 = private unnamed_addr constant [4 x i8] c"RSA\00", align 1
@.str.14 = private unnamed_addr constant [4 x i8] c"DSA\00", align 1
@.str.89 = private unnamed_addr constant [8 x i8] c"RSA-PSS\00", align 1
@.str.90 = private unnamed_addr constant [4 x i8] c"PSS\00", align 1
@.str.91 = private unnamed_addr constant [6 x i8] c"ECDSA\00", align 1

; Function Attrs: nounwind uwtable
define internal void @get_sigorhash(ptr noundef %0, ptr noundef %1, ptr noundef %2) #1 {
  %4 = alloca ptr, align 8
  %5 = alloca ptr, align 8
  %6 = alloca ptr, align 8
  store ptr %0, ptr %4, align 8, !tbaa !151
  store ptr %1, ptr %5, align 8, !tbaa !151
  store ptr %2, ptr %6, align 8, !tbaa !172
  %7 = load ptr, ptr %6, align 8, !tbaa !172
  %8 = call i32 @strcmp(ptr noundef %7, ptr noundef @.str.13) #9
  %9 = icmp eq i32 %8, 0
  br i1 %9, label %10, label %12

10:                                               ; preds = %3
  %11 = load ptr, ptr %4, align 8, !tbaa !151
  store i32 6, ptr %11, align 4, !tbaa !128
  br label %49

12:                                               ; preds = %3
  %13 = load ptr, ptr %6, align 8, !tbaa !172
  %14 = call i32 @strcmp(ptr noundef %13, ptr noundef @.str.89) #9
  %15 = icmp eq i32 %14, 0
  br i1 %15, label %20, label %16

16:                                               ; preds = %12
  %17 = load ptr, ptr %6, align 8, !tbaa !172
  %18 = call i32 @strcmp(ptr noundef %17, ptr noundef @.str.90) #9
  %19 = icmp eq i32 %18, 0
  br i1 %19, label %20, label %22

20:                                               ; preds = %16, %12
  %21 = load ptr, ptr %4, align 8, !tbaa !151
  store i32 912, ptr %21, align 4, !tbaa !128
  br label %48

22:                                               ; preds = %16
  %23 = load ptr, ptr %6, align 8, !tbaa !172
  %24 = call i32 @strcmp(ptr noundef %23, ptr noundef @.str.14) #9
  %25 = icmp eq i32 %24, 0
  br i1 %25, label %26, label %28

26:                                               ; preds = %22
  %27 = load ptr, ptr %4, align 8, !tbaa !151
  store i32 116, ptr %27, align 4, !tbaa !128
  br label %47

28:                                               ; preds = %22
  %29 = load ptr, ptr %6, align 8, !tbaa !172
  %30 = call i32 @strcmp(ptr noundef %29, ptr noundef @.str.91) #9
  %31 = icmp eq i32 %30, 0
  br i1 %31, label %32, label %34

32:                                               ; preds = %28
  %33 = load ptr, ptr %4, align 8, !tbaa !151
  store i32 408, ptr %33, align 4, !tbaa !128
  br label %46

34:                                               ; preds = %28
  %35 = load ptr, ptr %6, align 8, !tbaa !172
  %36 = call i32 @OBJ_sn2nid(ptr noundef %35)
  %37 = load ptr, ptr %5, align 8, !tbaa !151
  store i32 %36, ptr %37, align 4, !tbaa !128
  %38 = load ptr, ptr %5, align 8, !tbaa !151
  %39 = load i32, ptr %38, align 4, !tbaa !128
  %40 = icmp eq i32 %39, 0
  br i1 %40, label %41, label %45

41:                                               ; preds = %34
  %42 = load ptr, ptr %6, align 8, !tbaa !172
  %43 = call i32 @OBJ_ln2nid(ptr noundef %42)
  %44 = load ptr, ptr %5, align 8, !tbaa !151
  store i32 %43, ptr %44, align 4, !tbaa !128
  br label %45

45:                                               ; preds = %41, %34
  br label %46

46:                                               ; preds = %45, %32
  br label %47

47:                                               ; preds = %46, %26
  br label %48

48:                                               ; preds = %47, %20
  br label %49

49:                                               ; preds = %48, %10
  ret void
}