; Function Attrs: nounwind uwtable
define internal fastcc void @get_sigorhash(ptr noundef nonnull writeonly captures(none) %0, ptr noundef nonnull writeonly captures(none) %1, ptr noundef nonnull %2) unnamed_addr #2 {
  %4 = tail call i32 @strcmp(ptr noundef nonnull dereferenceable(1) %2, ptr noundef nonnull dereferenceable(4) @.str.13) #15
  %5 = icmp eq i32 %4, 0
  br i1 %5, label %6, label %7

6:                                                ; preds = %3
  store i32 6, ptr %0, align 4, !tbaa !135
  br label %27

7:                                                ; preds = %3
  %8 = tail call i32 @strcmp(ptr noundef nonnull dereferenceable(1) %2, ptr noundef nonnull dereferenceable(8) @.str.89) #15
  %9 = icmp eq i32 %8, 0
  br i1 %9, label %13, label %10

10:                                               ; preds = %7
  %11 = tail call i32 @strcmp(ptr noundef nonnull dereferenceable(1) %2, ptr noundef nonnull dereferenceable(4) @.str.90) #15
  %12 = icmp eq i32 %11, 0
  br i1 %12, label %13, label %14

13:                                               ; preds = %10, %7
  store i32 912, ptr %0, align 4, !tbaa !135
  br label %27

14:                                               ; preds = %10
  %15 = tail call i32 @strcmp(ptr noundef nonnull dereferenceable(1) %2, ptr noundef nonnull dereferenceable(4) @.str.14) #15
  %16 = icmp eq i32 %15, 0
  br i1 %16, label %17, label %18

17:                                               ; preds = %14
  store i32 116, ptr %0, align 4, !tbaa !135
  br label %27

18:                                               ; preds = %14
  %19 = tail call i32 @strcmp(ptr noundef nonnull dereferenceable(1) %2, ptr noundef nonnull dereferenceable(6) @.str.91) #15
  %20 = icmp eq i32 %19, 0
  br i1 %20, label %21, label %22

21:                                               ; preds = %18
  store i32 408, ptr %0, align 4, !tbaa !135
  br label %27

22:                                               ; preds = %18
  %23 = tail call i32 @OBJ_sn2nid(ptr noundef nonnull %2) #14
  store i32 %23, ptr %1, align 4, !tbaa !135
  %24 = icmp eq i32 %23, 0
  br i1 %24, label %25, label %27

25:                                               ; preds = %22
  %26 = tail call i32 @OBJ_ln2nid(ptr noundef nonnull %2) #14
  store i32 %26, ptr %1, align 4, !tbaa !135
  br label %27

27:                                               ; preds = %13, %21, %25, %22, %17, %6
  ret void
}